; Function Attrs: mustprogress memory(write, argmem: none, inaccessiblemem: readwrite) uwtable
define noundef ptr @_ZN11duckdb_zstd18ZSTD_createDStreamEv() local_unnamed_addr #6 {
_ZN11duckdb_zstdL17ZSTD_customMallocEmNS_14ZSTD_customMemE.exit.i:
  %0 = tail call noalias dereferenceable_or_null(95976) ptr @malloc(i64 noundef 95976) #16
  %.not7.i = icmp eq ptr %0, null
  br i1 %.not7.i, label %_ZN11duckdb_zstdL24ZSTD_createDCtx_internalENS_14ZSTD_customMemE.exit, label %1

1:                                                ; preds = %_ZN11duckdb_zstdL17ZSTD_customMallocEmNS_14ZSTD_customMemE.exit.i
  %2 = getelementptr inbounds nuw i8, ptr %0, i64 30128
  %3 = getelementptr inbounds nuw i8, ptr %0, i64 30168
  store i64 0, ptr %3, align 8, !tbaa !49
  %4 = getelementptr inbounds nuw i8, ptr %0, i64 30184
  %5 = getelementptr inbounds nuw i8, ptr %0, i64 29912
  store ptr null, ptr %5, align 8, !tbaa !31
  %6 = getelementptr inbounds nuw i8, ptr %0, i64 30204
  store i32 0, ptr %6, align 4, !tbaa !32
  %7 = getelementptr inbounds nuw i8, ptr %0, i64 30208
  store i32 0, ptr %7, align 8, !tbaa !33
  %8 = getelementptr inbounds nuw i8, ptr %0, i64 30280
  store i64 0, ptr %8, align 8, !tbaa !30
  %9 = getelementptr inbounds nuw i8, ptr %0, i64 30236
  %10 = getelementptr inbounds nuw i8, ptr %0, i64 30316
  store i32 0, ptr %10, align 4, !tbaa !34
  %11 = getelementptr inbounds nuw i8, ptr %0, i64 95960
  store i64 0, ptr %11, align 8, !tbaa !35
  %12 = getelementptr inbounds nuw i8, ptr %0, i64 30176
  tail call void @llvm.memset.p0.i64(ptr noundef nonnull align 8 dereferenceable(16) %4, i8 0, i64 16, i1 false)
  tail call void @llvm.memset.p0.i64(ptr noundef nonnull align 4 dereferenceable(20) %9, i8 0, i64 20, i1 false)
  tail call void @llvm.memset.p0.i64(ptr noundef nonnull align 8 dereferenceable(24) %2, i8 0, i64 24, i1 false)
  store i32 1, ptr %12, align 8, !tbaa !36
  %13 = tail call i32 asm "cpuid", "={ax},{ax},~{ebx},~{ecx},~{edx},~{dirflag},~{fpsr},~{flags}"(i32 0) #15, !srcloc !37
  %.not.i.i.i.i = icmp eq i32 %13, 0
  br i1 %.not.i.i.i.i, label %_ZN11duckdb_zstdL22ZSTD_initDCtx_internalEPNS_11ZSTD_DCtx_sE.exit.i, label %14

14:                                               ; preds = %1
  %15 = tail call { i32, i32, i32 } asm "cpuid", "={ax},={cx},={dx},{ax},~{ebx},~{dirflag},~{fpsr},~{flags}"(i32 1) #15, !srcloc !38
  %16 = icmp ugt i32 %13, 6
  br i1 %16, label %_ZN11duckdb_zstdL10ZSTD_cpuidEv.exit.i.i.i, label %_ZN11duckdb_zstdL22ZSTD_initDCtx_internalEPNS_11ZSTD_DCtx_sE.exit.i

_ZN11duckdb_zstdL10ZSTD_cpuidEv.exit.i.i.i:       ; preds = %14
  %17 = tail call { i32, i32, i32 } asm "cpuid", "={ax},={bx},={cx},{ax},{cx},~{edx},~{dirflag},~{fpsr},~{flags}"(i32 7, i32 0) #15, !srcloc !39
  %18 = extractvalue { i32, i32, i32 } %17, 1
  %19 = and i32 %18, 8
  %.not.i.i.i = icmp eq i32 %19, 0
  br i1 %.not.i.i.i, label %_ZN11duckdb_zstdL22ZSTD_initDCtx_internalEPNS_11ZSTD_DCtx_sE.exit.i, label %20

20:                                               ; preds = %_ZN11duckdb_zstdL10ZSTD_cpuidEv.exit.i.i.i
  %21 = lshr i32 %18, 8
  %22 = and i32 %21, 1
  br label %_ZN11duckdb_zstdL22ZSTD_initDCtx_internalEPNS_11ZSTD_DCtx_sE.exit.i

_ZN11duckdb_zstdL22ZSTD_initDCtx_internalEPNS_11ZSTD_DCtx_sE.exit.i: ; preds = %20, %_ZN11duckdb_zstdL10ZSTD_cpuidEv.exit.i.i.i, %14, %1
  %23 = phi i32 [ 0, %_ZN11duckdb_zstdL10ZSTD_cpuidEv.exit.i.i.i ], [ %22, %20 ], [ 0, %14 ], [ 0, %1 ]
  %24 = getelementptr inbounds nuw i8, ptr %0, i64 30180
  store i32 %23, ptr %24, align 4, !tbaa !40
  %25 = getelementptr inbounds nuw i8, ptr %0, i64 30216
  store ptr null, ptr %25, align 8, !tbaa !41
  %26 = getelementptr inbounds nuw i8, ptr %0, i64 30104
  store i32 0, ptr %26, align 8, !tbaa !42
  %27 = getelementptr inbounds nuw i8, ptr %0, i64 30264
  store i64 134217729, ptr %27, align 8, !tbaa !43
  %28 = getelementptr inbounds nuw i8, ptr %0, i64 30320
  store i32 0, ptr %28, align 8, !tbaa !44
  %29 = getelementptr inbounds nuw i8, ptr %0, i64 30108
  store i32 0, ptr %29, align 4, !tbaa !45
  %30 = getelementptr inbounds nuw i8, ptr %0, i64 30224
  store i32 0, ptr %30, align 8, !tbaa !46
  %31 = getelementptr inbounds nuw i8, ptr %0, i64 30228
  store i32 0, ptr %31, align 4, !tbaa !47
  %32 = getelementptr inbounds nuw i8, ptr %0, i64 30232
  store i32 0, ptr %32, align 8, !tbaa !48
  br label %_ZN11duckdb_zstdL24ZSTD_createDCtx_internalENS_14ZSTD_customMemE.exit

_ZN11duckdb_zstdL24ZSTD_createDCtx_internalENS_14ZSTD_customMemE.exit: ; preds = %_ZN11duckdb_zstdL17ZSTD_customMallocEmNS_14ZSTD_customMemE.exit.i, %_ZN11duckdb_zstdL22ZSTD_initDCtx_internalEPNS_11ZSTD_DCtx_sE.exit.i
  ret ptr %0
}